; Function Attrs: mustprogress uwtable
define void @_ZN32pxrInternal_v0_24__pxrReserved__36UsdImagingDataSourceExtentCoordinate13GetTypedValueEf(ptr dead_on_unwind noalias writable writeonly sret(%"class.pxrInternal_v0_24__pxrReserved__::GfVec3d") align 8 captures(none) %0, ptr noundef nonnull align 8 dereferenceable(36) %1, float noundef %2) unnamed_addr #0 align 2 personality ptr @__gxx_personality_v0 {
  %4 = alloca %"class.pxrInternal_v0_24__pxrReserved__::VtArray", align 8
  %5 = alloca %"class.pxrInternal_v0_24__pxrReserved__::TfCallContext", align 8
  %6 = getelementptr inbounds nuw i8, ptr %1, i64 8
  %7 = load ptr, ptr %6, align 8
  %8 = load ptr, ptr %7, align 8
  %9 = getelementptr inbounds nuw i8, ptr %8, i64 32
  %10 = load ptr, ptr %9, align 8
  call void %10(ptr dead_on_unwind nonnull writable sret(%"class.pxrInternal_v0_24__pxrReserved__::VtArray") align 8 %4, ptr noundef nonnull align 8 dereferenceable(8) %7, float noundef %2)
  %11 = getelementptr inbounds nuw i8, ptr %1, i64 32
  %12 = load i32, ptr %11, align 8
  %13 = invoke noundef i64 @_ZNK32pxrInternal_v0_24__pxrReserved__7VtArrayINS_7GfVec3fEE4sizeEv(ptr noundef nonnull align 8 dereferenceable(40) %4)
          to label %14 unwind label %26

14:                                               ; preds = %3
  %15 = zext i32 %12 to i64
  %.not = icmp ugt i64 %13, %15
  br i1 %.not, label %28, label %16

16:                                               ; preds = %14
  store ptr @.str, ptr %5, align 8
  %17 = getelementptr inbounds nuw i8, ptr %5, i64 8
  store ptr @__func__._ZN32pxrInternal_v0_24__pxrReserved__36UsdImagingDataSourceExtentCoordinate13GetTypedValueEf, ptr %17, align 8
  %18 = getelementptr inbounds nuw i8, ptr %5, i64 16
  store i64 158, ptr %18, align 8
  %19 = getelementptr inbounds nuw i8, ptr %5, i64 24
  store ptr @__PRETTY_FUNCTION__._ZN32pxrInternal_v0_24__pxrReserved__36UsdImagingDataSourceExtentCoordinate13GetTypedValueEf, ptr %19, align 8
  %20 = getelementptr inbounds nuw i8, ptr %5, i64 32
  store i8 0, ptr %20, align 8
  %21 = getelementptr inbounds nuw i8, ptr %1, i64 24
  %22 = invoke noundef ptr @_ZNK32pxrInternal_v0_24__pxrReserved__7SdfPath7GetTextEv(ptr noundef nonnull align 4 dereferenceable(8) %21)
          to label %23 unwind label %26

23:                                               ; preds = %16
  %24 = load i32, ptr %11, align 8
  invoke void (ptr, ptr, ...) @_ZN32pxrInternal_v0_24__pxrReserved__20Tf_PostWarningHelperERKNS_13TfCallContextEPKcz(ptr noundef nonnull align 8 dereferenceable(33) %5, ptr noundef nonnull @.str.1, ptr noundef %22, i32 noundef %24)
          to label %25 unwind label %26

25:                                               ; preds = %23
  call void @llvm.memset.p0.i64(ptr noundef nonnull align 8 dereferenceable(24) %0, i8 0, i64 24, i1 false)
  br label %43

26:                                               ; preds = %28, %23, %16, %3
  %27 = landingpad { ptr, i32 }
          cleanup
  call void @_ZN32pxrInternal_v0_24__pxrReserved__7VtArrayINS_7GfVec3fEED1Ev(ptr noundef nonnull align 8 dereferenceable(40) %4) #23
  resume { ptr, i32 } %27

28:                                               ; preds = %14
  %29 = load i32, ptr %11, align 8
  %30 = zext i32 %29 to i64
  %31 = invoke noundef nonnull align 4 dereferenceable(12) ptr @_ZNK32pxrInternal_v0_24__pxrReserved__7VtArrayINS_7GfVec3fEEixEm(ptr noundef nonnull align 8 dereferenceable(40) %4, i64 noundef %30)
          to label %32 unwind label %26

32:                                               ; preds = %28
  %33 = load float, ptr %31, align 4
  %34 = fpext float %33 to double
  store double %34, ptr %0, align 8
  %35 = getelementptr inbounds nuw i8, ptr %31, i64 4
  %36 = load float, ptr %35, align 4
  %37 = fpext float %36 to double
  %38 = getelementptr inbounds nuw i8, ptr %0, i64 8
  store double %37, ptr %38, align 8
  %39 = getelementptr inbounds nuw i8, ptr %31, i64 8
  %40 = load float, ptr %39, align 4
  %41 = fpext float %40 to double
  %42 = getelementptr inbounds nuw i8, ptr %0, i64 16
  store double %41, ptr %42, align 8
  br label %43

43:                                               ; preds = %32, %25
  call void @_ZN32pxrInternal_v0_24__pxrReserved__7VtArrayINS_7GfVec3fEED1Ev(ptr noundef nonnull align 8 dereferenceable(40) %4) #23
  ret void
}